target datalayout = "e-m:e-p270:32:32-p271:32:32-p272:64:64-i64:64-i128:128-f80:128-n8:16:32:64-S128"
target triple = "x86_64-pc-linux-gnu"

%struct.rb_red_blk_tree = type { ptr, ptr, ptr, ptr }
%struct.rb_red_blk_node = type { ptr, i32, ptr, ptr, ptr }

; Function Attrs: nounwind uwtable
define void @RBTreeDestroy(ptr noundef %0) #0 {
  %2 = alloca ptr, align 8
  store ptr %0, ptr %2, align 8, !tbaa !7
  %3 = load ptr, ptr %2, align 8, !tbaa !7
  %4 = load ptr, ptr %2, align 8, !tbaa !7
  %5 = getelementptr inbounds nuw %struct.rb_red_blk_tree, ptr %4, i32 0, i32 2
  %6 = load ptr, ptr %5, align 8, !tbaa !9
  %7 = getelementptr inbounds nuw %struct.rb_red_blk_node, ptr %6, i32 0, i32 2
  %8 = load ptr, ptr %7, align 8, !tbaa !19
  call void @TreeDestHelper(ptr noundef %3, ptr noundef %8)
  %9 = load ptr, ptr %2, align 8, !tbaa !7
  %10 = getelementptr inbounds nuw %struct.rb_red_blk_tree, ptr %9, i32 0, i32 2
  %11 = load ptr, ptr %10, align 8, !tbaa !9
  call void @free(ptr noundef %11) #4
  %12 = load ptr, ptr %2, align 8, !tbaa !7
  %13 = getelementptr inbounds nuw %struct.rb_red_blk_tree, ptr %12, i32 0, i32 3
  %14 = load ptr, ptr %13, align 8, !tbaa !12
  call void @free(ptr noundef %14) #4
  %15 = load ptr, ptr %2, align 8, !tbaa !7
  call void @free(ptr noundef %15) #4
  ret void
}