; Function Attrs: nounwind uwtable
define void @RBTreeDestroy(ptr noundef %0) local_unnamed_addr #3 {
  %2 = getelementptr inbounds nuw i8, ptr %0, i64 16
  %3 = load ptr, ptr %2, align 8, !tbaa !18
  %4 = getelementptr inbounds nuw i8, ptr %3, i64 16
  %5 = load ptr, ptr %4, align 8, !tbaa !14
  tail call fastcc void @TreeDestHelper(ptr noundef %0, ptr noundef %5)
  %6 = load ptr, ptr %2, align 8, !tbaa !18
  tail call void @free(ptr noundef %6) #7
  %7 = getelementptr inbounds nuw i8, ptr %0, i64 24
  %8 = load ptr, ptr %7, align 8, !tbaa !10
  tail call void @free(ptr noundef %8) #7
  tail call void @free(ptr noundef %0) #7
  ret void
}